; Function Attrs: mustprogress uwtable
define noundef i32 @_Z21inspect_chunk_by_namePKhS0_RN7lodepng5StateEPKc(ptr noundef %0, ptr noundef %1, ptr noundef nonnull align 8 dereferenceable(640) %2, ptr noundef %3) local_unnamed_addr #3 {
  %5 = tail call noundef ptr @_Z24lodepng_chunk_find_constPKhS0_PKc(ptr noundef %0, ptr noundef %1, ptr noundef %3)
  %.not = icmp eq ptr %5, null
  br i1 %.not, label %13, label %6

6:                                                ; preds = %4
  %7 = ptrtoint ptr %5 to i64
  %8 = ptrtoint ptr %0 to i64
  %9 = sub i64 %7, %8
  %10 = ptrtoint ptr %1 to i64
  %11 = sub i64 %10, %8
  %12 = tail call noundef i32 @_Z21lodepng_inspect_chunkP12LodePNGStatemPKhm(ptr noundef nonnull %2, i64 noundef %9, ptr noundef %0, i64 noundef %11)
  br label %13

13:                                               ; preds = %4, %6
  %.0 = phi i32 [ %12, %6 ], [ 0, %4 ]
  ret i32 %.0
}